Modules list:
-------------
init.o:
    CODE              Offs=000000  Size=00040E  Align=00001  Fill=0000
    RODATA            Offs=000000  Size=0001C7  Align=00001  Fill=0000
    BSS               Offs=000000  Size=000120  Align=00001  Fill=0000
../lib/tunix/libtunix.a(main.o):
    CODE              Offs=00040E  Size=00013C  Align=00001  Fill=0000
    DATA              Offs=000000  Size=000020  Align=00001  Fill=0000
../lib/tunix/libtunix.a(c-wrappers.o):
    CODE              Offs=00054A  Size=000006  Align=00001  Fill=0000
/usr/local/share/cc65/lib/vic20.lib(_directerrno.o):
    CODE              Offs=000550  Size=00000A  Align=00001  Fill=0000
/usr/local/share/cc65/lib/vic20.lib(_file.o):
    DATA              Offs=000020  Size=00001E  Align=00001  Fill=0000
/usr/local/share/cc65/lib/vic20.lib(_hextab.o):
    RODATA            Offs=0001C7  Size=000010  Align=00001  Fill=0000
/usr/local/share/cc65/lib/vic20.lib(_longminstr.o):
    RODATA            Offs=0001D7  Size=00000C  Align=00001  Fill=0000
/usr/local/share/cc65/lib/vic20.lib(_mappederrno.o):
    CODE              Offs=00055A  Size=000010  Align=00001  Fill=0000
/usr/local/share/cc65/lib/vic20.lib(_oserror.o):
    BSS               Offs=000120  Size=000001  Align=00001  Fill=0000
/usr/local/share/cc65/lib/vic20.lib(_printf.o):
    CODE              Offs=00056A  Size=0003A2  Align=00001  Fill=0000
    BSS               Offs=000121  Size=00002B  Align=00001  Fill=0000
    DATA              Offs=00003E  Size=000003  Align=00001  Fill=0000
/usr/local/share/cc65/lib/vic20.lib(_seterrno.o):
    CODE              Offs=00090C  Size=000009  Align=00001  Fill=0000
/usr/local/share/cc65/lib/vic20.lib(addysp.o):
    CODE              Offs=000915  Size=00000E  Align=00001  Fill=0000
/usr/local/share/cc65/lib/vic20.lib(axlong.o):
    CODE              Offs=000923  Size=00000D  Align=00001  Fill=0000
/usr/local/share/cc65/lib/vic20.lib(callmain.o):
    CODE              Offs=000930  Size=000017  Align=00001  Fill=0000
    DATA              Offs=000041  Size=000004  Align=00001  Fill=0000
/usr/local/share/cc65/lib/vic20.lib(checkferror.o):
    CODE              Offs=000947  Size=00000C  Align=00001  Fill=0000
/usr/local/share/cc65/lib/vic20.lib(condes.o):
    CODE              Offs=000953  Size=00000C  Align=00001  Fill=0000
    DATA              Offs=000045  Size=000025  Align=00001  Fill=0000
    ONCE              Offs=000000  Size=00000C  Align=00001  Fill=0000
/usr/local/share/cc65/lib/vic20.lib(crt0.o):
    BSS               Offs=00014C  Size=000001  Align=00001  Fill=0000
    STARTUP           Offs=000000  Size=00003A  Align=00001  Fill=0000
    INIT              Offs=000000  Size=00001A  Align=00001  Fill=0000
/usr/local/share/cc65/lib/vic20.lib(ctype.o):
    RODATA            Offs=0001E3  Size=00008B  Align=00001  Fill=0000
/usr/local/share/cc65/lib/vic20.lib(ctypemask.o):
    CODE              Offs=00095F  Size=00001E  Align=00001  Fill=0000
/usr/local/share/cc65/lib/vic20.lib(decsp1.o):
    CODE              Offs=00097D  Size=000009  Align=00001  Fill=0000
/usr/local/share/cc65/lib/vic20.lib(decsp2.o):
    CODE              Offs=000986  Size=00000D  Align=00001  Fill=0000
/usr/local/share/cc65/lib/vic20.lib(decsp3.o):
    CODE              Offs=000993  Size=00000D  Align=00001  Fill=0000
/usr/local/share/cc65/lib/vic20.lib(decsp4.o):
    CODE              Offs=0009A0  Size=00000D  Align=00001  Fill=0000
/usr/local/share/cc65/lib/vic20.lib(decsp6.o):
    CODE              Offs=0009AD  Size=00000D  Align=00001  Fill=0000
/usr/local/share/cc65/lib/vic20.lib(errno.o):
    BSS               Offs=00014D  Size=000002  Align=00001  Fill=0000
/usr/local/share/cc65/lib/vic20.lib(exehdr.o):
    EXEHDR            Offs=000000  Size=00000C  Align=00001  Fill=0000
/usr/local/share/cc65/lib/vic20.lib(fgetc.o):
    CODE              Offs=0009BA  Size=00005F  Align=00001  Fill=0000
    BSS               Offs=00014F  Size=000001  Align=00001  Fill=0000
/usr/local/share/cc65/lib/vic20.lib(filedes.o):
    CODE              Offs=000A19  Size=00000E  Align=00001  Fill=0000
    DATA              Offs=00006A  Size=000010  Align=00001  Fill=0000
/usr/local/share/cc65/lib/vic20.lib(fwrite.o):
    CODE              Offs=000A27  Size=000079  Align=00001  Fill=0000
    BSS               Offs=000150  Size=000002  Align=00001  Fill=0000
/usr/local/share/cc65/lib/vic20.lib(getchar.o):
    CODE              Offs=000AA0  Size=000009  Align=00001  Fill=0000
/usr/local/share/cc65/lib/vic20.lib(incax1.o):
    CODE              Offs=000AA9  Size=000007  Align=00001  Fill=0000
/usr/local/share/cc65/lib/vic20.lib(incsp2.o):
    CODE              Offs=000AB0  Size=000016  Align=00001  Fill=0000
/usr/local/share/cc65/lib/vic20.lib(incsp3.o):
    CODE              Offs=000AC6  Size=000005  Align=00001  Fill=0000
/usr/local/share/cc65/lib/vic20.lib(incsp4.o):
    CODE              Offs=000ACB  Size=000005  Align=00001  Fill=0000
/usr/local/share/cc65/lib/vic20.lib(incsp6.o):
    CODE              Offs=000AD0  Size=000005  Align=00001  Fill=0000
/usr/local/share/cc65/lib/vic20.lib(kernal.o):
/usr/local/share/cc65/lib/vic20.lib(ldaxsp.o):
    CODE              Offs=000AD5  Size=000009  Align=00001  Fill=0000
/usr/local/share/cc65/lib/vic20.lib(lneg.o):
    CODE              Offs=000ADE  Size=00001E  Align=00001  Fill=0000
/usr/local/share/cc65/lib/vic20.lib(loadaddr.o):
    LOADADDR          Offs=000000  Size=000002  Align=00001  Fill=0000
/usr/local/share/cc65/lib/vic20.lib(lpush.o):
    CODE              Offs=000AFC  Size=000021  Align=00001  Fill=0000
/usr/local/share/cc65/lib/vic20.lib(ltoa.o):
    CODE              Offs=000B1D  Size=000095  Align=00001  Fill=0000
/usr/local/share/cc65/lib/vic20.lib(mod.o):
    CODE              Offs=000BB2  Size=000011  Align=00001  Fill=0000
/usr/local/share/cc65/lib/vic20.lib(mul.o):
    CODE              Offs=000BC3  Size=000045  Align=00001  Fill=0000
/usr/local/share/cc65/lib/vic20.lib(mul8.o):
    CODE              Offs=000C08  Size=00003A  Align=00001  Fill=0000
/usr/local/share/cc65/lib/vic20.lib(negabs.o):
    CODE              Offs=000C42  Size=000012  Align=00001  Fill=0000
/usr/local/share/cc65/lib/vic20.lib(oserror.o):
    CODE              Offs=000C54  Size=000016  Align=00001  Fill=0000
    RODATA            Offs=00026E  Size=00005A  Align=00001  Fill=0000
/usr/local/share/cc65/lib/vic20.lib(popptr1.o):
    CODE              Offs=000C6A  Size=00000E  Align=00001  Fill=0000
/usr/local/share/cc65/lib/vic20.lib(printf.o):
    CODE              Offs=000C78  Size=000033  Align=00001  Fill=0000
    BSS               Offs=000152  Size=000001  Align=00001  Fill=0000
/usr/local/share/cc65/lib/vic20.lib(push1.o):
    CODE              Offs=000CAB  Size=000005  Align=00001  Fill=0000
/usr/local/share/cc65/lib/vic20.lib(pusha.o):
    CODE              Offs=000CB0  Size=000016  Align=00001  Fill=0000
/usr/local/share/cc65/lib/vic20.lib(pushax.o):
    CODE              Offs=000CC6  Size=00001A  Align=00001  Fill=0000
/usr/local/share/cc65/lib/vic20.lib(pushwsp.o):
    CODE              Offs=000CE0  Size=00001C  Align=00001  Fill=0000
/usr/local/share/cc65/lib/vic20.lib(rand.o):
    CODE              Offs=000CFC  Size=000034  Align=00001  Fill=0000
    DATA              Offs=00007A  Size=000004  Align=00001  Fill=0000
/usr/local/share/cc65/lib/vic20.lib(read.o):
    CODE              Offs=000D30  Size=00007C  Align=00001  Fill=0000
    BSS               Offs=000153  Size=000001  Align=00001  Fill=0000
    ONCE              Offs=00000C  Size=00000C  Align=00001  Fill=0000
/usr/local/share/cc65/lib/vic20.lib(returnFFFF.o):
    CODE              Offs=000DAC  Size=000004  Align=00001  Fill=0000
/usr/local/share/cc65/lib/vic20.lib(rwcommon.o):
    CODE              Offs=000DB0  Size=00001A  Align=00001  Fill=0000
/usr/local/share/cc65/lib/vic20.lib(shelp.o):
    CODE              Offs=000DCA  Size=000020  Align=00001  Fill=0000
/usr/local/share/cc65/lib/vic20.lib(status.o):
/usr/local/share/cc65/lib/vic20.lib(strlen.o):
    CODE              Offs=000DEA  Size=000016  Align=00001  Fill=0000
/usr/local/share/cc65/lib/vic20.lib(strlower.o):
    CODE              Offs=000E00  Size=000027  Align=00001  Fill=0000
/usr/local/share/cc65/lib/vic20.lib(udiv.o):
    CODE              Offs=000E27  Size=00004F  Align=00001  Fill=0000
/usr/local/share/cc65/lib/vic20.lib(vfprintf.o):
    CODE              Offs=000E76  Size=000061  Align=00001  Fill=0000
    DATA              Offs=00007E  Size=000008  Align=00001  Fill=0000
/usr/local/share/cc65/lib/vic20.lib(write.o):
    CODE              Offs=000ED7  Size=000052  Align=00001  Fill=0000
    ONCE              Offs=000018  Size=000011  Align=00001  Fill=0000
/usr/local/share/cc65/lib/vic20.lib(zerobss.o):
    CODE              Offs=000F29  Size=000023  Align=00001  Fill=0000
/usr/local/share/cc65/lib/vic20.lib(zeropage.o):
    ZEROPAGE          Offs=000000  Size=00001A  Align=00001  Fill=0000


Segment list:
-------------
Name                   Start     End    Size  Align
----------------------------------------------------
ZEROPAGE              000002  00001B  00001A  00001
LOADADDR              0011FF  001200  000002  00001
EXEHDR                001201  00120C  00000C  00001
STARTUP               00120D  001246  00003A  00001
ONCE                  001247  001273  00002D  00001
CODE                  001274  0021BF  000F4C  00001
RODATA                0021C0  002487  0002C8  00001
DATA                  002488  00250D  000086  00001
INIT                  00250E  002527  00001A  00001
BSS                   002528  00267B  000154  00001


Exports list by name:
---------------------
BASIN                     00FFCF RLA    BSOUT                     00FFD2 RLA    
CHKIN                     00FFC6 RLA    CKOUT                     00FFC9 RLA    
CLRCH                     00FFCC RLA    OPEN                      00FFC0 RLA    
READST                    00FFB7 RLA    SETLFS                    00FFBA RLA    
ST                        000090 RLZ    __BSS_RUN__               002528 RLA    
__BSS_SIZE__              000154 REA    __CONSTRUCTOR_COUNT__     000002 REA    
__CONSTRUCTOR_TABLE__     001270 RLA    __DESTRUCTOR_COUNT__      000000 REA    
__DESTRUCTOR_TABLE__      002488 RLA    __EXEHDR__                000001 REA    
__LOADADDR__              000001 REA    __MAIN_SIZE__             0065F3 REA    
__MAIN_START__            00120D RLA    __STACKSIZE__             000800 REA    
__STARTUP__               000001 REA    ___directerrno            0017C4 RLA    
___errno                  002675 RLA    ___mappederrno            0017CE RLA    
___oserror                002648 RLA    ___osmaperrno             001EC8 RLA    
___seterrno               001B80 RLA    __ctype                   0023A3 RLA    
__ctypeidx                0023AE RLA    __hextab                  002387 RLA    
__longminstr              002397 RLA    __printf                  0018CF RLA    
_fgetc                    001C2E RLA    _fwrite                   001C9B RLA    
_getchar                  001D14 RLA    _ltoa                     001DA9 RLA    
_main                     001648 RLA    _printf                   001EEC RLA    
_rand                     001F7C RLA    _read                     001FA4 RLA    
_stdin                    0024C0 RLA    _stdout                   0024C2 RLA    
_strlen                   00205E RLA    _strlower                 002074 RLA    
_tunix_alloc              0016A3 REA    _tunix_exit               0016FE REA    
_tunix_fork               0016EC REA    _tunix_free               0016B5 REA    
_tunix_getpid             0016DA REA    _tunix_mem_info           0016C8 REA    
_tunix_mode               001690 REA    _tunix_proc_info          001773 REA    
_tunix_proc_list          001760 REA    _tunix_schedule           001682 REA    
_tunix_wait               00174D REA    _ultoa                    001DEA RLA    
_vfprintf                 002122 RLA    _write                    00214B RLA    
addysp                    001B8A RLA    axlong                    001B97 RLA    
axulong                   001B9D RLA    callmain                  001BA4 RLA    
checkferror               001BBB RLA    ctypemaskdirect           001BD7 RLA    
decsp1                    001BF1 RLA    decsp2                    001BFA RLA    
decsp3                    001C07 RLA    decsp4                    001C14 RLA    
decsp6                    001C21 RLA    donelib                   001BC7 RLA    
fdtab                     0024F2 RLA    incax1                    001D1D RLA    
incsp2                    001D2C RLA    incsp3                    001D3A RLA    
incsp4                    001D3F RLA    incsp6                    001D44 RLA    
initlib                   001247 RLA    initstdin                 001253  LAI   
initstdout                00125F  LAI   ldaxysp                   001D4B RLA    
lib_alloc                 0016A3 RLA    lib_exit                  0016FE RLA    
lib_fork                  0016EC RLA    lib_free                  0016B5 RLA    
lib_getpid                0016DA RLA    lib_iopage_alloc          001786 RLA    
lib_iopage_commit         001798 RLA    lib_iopage_free           0017AB RLA    
lib_kill                  001711 RLA    lib_mem_info              0016C8 RLA    
lib_mode                  001690 RLA    lib_proc_info             001773 RLA    
lib_proc_list             001760 RLA    lib_resume                00173A RLA    
lib_schedule              001682 RLA    lib_suspend               001727 RLA    
lib_wait                  00174D RLA    mul8x16                   001E7E RLA    
mul8x16a                  001E88 RLA    negax                     001EBA RLA    
negeax                    001D52 RLA    popax                     001D24 RLA    
popptr1                   001EDE RLA    popsargsudiv16            00203E RLA    
ptr1                      00000A RLZ    ptr2                      00000C RLZ    
ptr3                      00000E RLZ    ptr4                      000010 RLZ    
push1                     001F1F RLA    pusha                     001F28 RLA    
pusha0                    001F3C RLA    pushax                    001F3E RLA    
pusheax                   001D79 RLA    pushwysp                  001F56 RLA    
regbank                   000016 RLZ    returnFFFF                002020 RLA    
rwcommon                  002024 RLA    sp                        000002 RLZ    
sreg                      000004 RLZ    tmp1                      000012 RLZ    
tmp2                      000013 RLZ    tmp3                      000014 RLZ    
tosmoda0                  001E26 RLA    tosudivax                 00209D RLA    
tosumulax                 001E37 RLA    udiv16                    0020AC RLA    
unittab                   0024FA RLA    zerobss                   00219D RLA    



Exports list by value:
----------------------
__DESTRUCTOR_COUNT__      000000 REA    __EXEHDR__                000001 REA    
__LOADADDR__              000001 REA    __STARTUP__               000001 REA    
__CONSTRUCTOR_COUNT__     000002 REA    sp                        000002 RLZ    
sreg                      000004 RLZ    ptr1                      00000A RLZ    
ptr2                      00000C RLZ    ptr3                      00000E RLZ    
ptr4                      000010 RLZ    tmp1                      000012 RLZ    
tmp2                      000013 RLZ    tmp3                      000014 RLZ    
regbank                   000016 RLZ    ST                        000090 RLZ    
__BSS_SIZE__              000154 REA    __STACKSIZE__             000800 REA    
__MAIN_START__            00120D RLA    initlib                   001247 RLA    
initstdin                 001253  LAI   initstdout                00125F  LAI   
__CONSTRUCTOR_TABLE__     001270 RLA    _main                     001648 RLA    
_tunix_schedule           001682 REA    lib_schedule              001682 RLA    
_tunix_mode               001690 REA    lib_mode                  001690 RLA    
_tunix_alloc              0016A3 REA    lib_alloc                 0016A3 RLA    
_tunix_free               0016B5 REA    lib_free                  0016B5 RLA    
_tunix_mem_info           0016C8 REA    lib_mem_info              0016C8 RLA    
_tunix_getpid             0016DA REA    lib_getpid                0016DA RLA    
_tunix_fork               0016EC REA    lib_fork                  0016EC RLA    
_tunix_exit               0016FE REA    lib_exit                  0016FE RLA    
lib_kill                  001711 RLA    lib_suspend               001727 RLA    
lib_resume                00173A RLA    _tunix_wait               00174D REA    
lib_wait                  00174D RLA    _tunix_proc_list          001760 REA    
lib_proc_list             001760 RLA    _tunix_proc_info          001773 REA    
lib_proc_info             001773 RLA    lib_iopage_alloc          001786 RLA    
lib_iopage_commit         001798 RLA    lib_iopage_free           0017AB RLA    
___directerrno            0017C4 RLA    ___mappederrno            0017CE RLA    
__printf                  0018CF RLA    ___seterrno               001B80 RLA    
addysp                    001B8A RLA    axlong                    001B97 RLA    
axulong                   001B9D RLA    callmain                  001BA4 RLA    
checkferror               001BBB RLA    donelib                   001BC7 RLA    
ctypemaskdirect           001BD7 RLA    decsp1                    001BF1 RLA    
decsp2                    001BFA RLA    decsp3                    001C07 RLA    
decsp4                    001C14 RLA    decsp6                    001C21 RLA    
_fgetc                    001C2E RLA    _fwrite                   001C9B RLA    
_getchar                  001D14 RLA    incax1                    001D1D RLA    
popax                     001D24 RLA    incsp2                    001D2C RLA    
incsp3                    001D3A RLA    incsp4                    001D3F RLA    
incsp6                    001D44 RLA    ldaxysp                   001D4B RLA    
negeax                    001D52 RLA    pusheax                   001D79 RLA    
_ltoa                     001DA9 RLA    _ultoa                    001DEA RLA    
tosmoda0                  001E26 RLA    tosumulax                 001E37 RLA    
mul8x16                   001E7E RLA    mul8x16a                  001E88 RLA    
negax                     001EBA RLA    ___osmaperrno             001EC8 RLA    
popptr1                   001EDE RLA    _printf                   001EEC RLA    
push1                     001F1F RLA    pusha                     001F28 RLA    
pusha0                    001F3C RLA    pushax                    001F3E RLA    
pushwysp                  001F56 RLA    _rand                     001F7C RLA    
_read                     001FA4 RLA    returnFFFF                002020 RLA    
rwcommon                  002024 RLA    popsargsudiv16            00203E RLA    
_strlen                   00205E RLA    _strlower                 002074 RLA    
tosudivax                 00209D RLA    udiv16                    0020AC RLA    
_vfprintf                 002122 RLA    _write                    00214B RLA    
zerobss                   00219D RLA    __hextab                  002387 RLA    
__longminstr              002397 RLA    __ctype                   0023A3 RLA    
__ctypeidx                0023AE RLA    __DESTRUCTOR_TABLE__      002488 RLA    
_stdin                    0024C0 RLA    _stdout                   0024C2 RLA    
fdtab                     0024F2 RLA    unittab                   0024FA RLA    
__BSS_RUN__               002528 RLA    ___oserror                002648 RLA    
___errno                  002675 RLA    __MAIN_SIZE__             0065F3 REA    
READST                    00FFB7 RLA    SETLFS                    00FFBA RLA    
OPEN                      00FFC0 RLA    CHKIN                     00FFC6 RLA    
CKOUT                     00FFC9 RLA    CLRCH                     00FFCC RLA    
BASIN                     00FFCF RLA    BSOUT                     00FFD2 RLA    



Imports list:
-------------
BASIN (kernal.o):
    read.o                    cbm/cbm.inc:47
BSOUT (kernal.o):
    write.o                   cbm/cbm.inc:49
    read.o                    cbm/cbm.inc:49
    crt0.o                    vic20/crt0.s:10
CHKIN (kernal.o):
    read.o                    cbm/cbm.inc:44
CKOUT (kernal.o):
    write.o                   cbm/cbm.inc:45
CLRCH (kernal.o):
    write.o                   cbm/cbm.inc:46
    read.o                    cbm/cbm.inc:46
OPEN (kernal.o):
    write.o                   cbm/cbm.inc:35
    read.o                    cbm/cbm.inc:35
READST (kernal.o):
    write.o                   cbm/cbm.inc:32
    read.o                    cbm/cbm.inc:32
SETLFS (kernal.o):
    write.o                   cbm/cbm.inc:33
    read.o                    cbm/cbm.inc:33
ST (status.o):
    crt0.o                    vic20/crt0.s:13
__BSS_RUN__ ([linker generated]):
    zerobss.o                 common/zerobss.s:8
__BSS_SIZE__ ([linker generated]):
    zerobss.o                 common/zerobss.s:8
__CONSTRUCTOR_COUNT__ ([linker generated]):
    condes.o                  runtime/condes.s:18
__CONSTRUCTOR_TABLE__ ([linker generated]):
    condes.o                  runtime/condes.s:18
__DESTRUCTOR_COUNT__ ([linker generated]):
    condes.o                  runtime/condes.s:19
__DESTRUCTOR_TABLE__ ([linker generated]):
    condes.o                  runtime/condes.s:19
__EXEHDR__ (exehdr.o):
    [linker generated]        /usr/local/share/cc65/cfg/vic20-32k.cfg:5
__LOADADDR__ (loadaddr.o):
    [linker generated]        /usr/local/share/cc65/cfg/vic20-32k.cfg:4
__MAIN_SIZE__ ([linker generated]):
    crt0.o                    vic20/crt0.s:11
__MAIN_START__ ([linker generated]):
    crt0.o                    vic20/crt0.s:11
__STACKSIZE__ ([linker generated]):
    crt0.o                    vic20/crt0.s:12
    [linker generated]        /usr/local/share/cc65/cfg/vic20-32k.cfg:12
__STARTUP__ (crt0.o):
    init.o                    init.s:13
___directerrno (_directerrno.o):
    write.o                   /home/pixel/Desktop/3rd-party/lang/cc65/asminc/errno.inc:10
    read.o                    /home/pixel/Desktop/3rd-party/lang/cc65/asminc/errno.inc:10
___errno (errno.o):
    _seterrno.o               /home/pixel/Desktop/3rd-party/lang/cc65/asminc/errno.inc:7
___mappederrno (_mappederrno.o):
    write.o                   /home/pixel/Desktop/3rd-party/lang/cc65/asminc/errno.inc:10
    read.o                    /home/pixel/Desktop/3rd-party/lang/cc65/asminc/errno.inc:10
___oserror (_oserror.o):
    _mappederrno.o            /home/pixel/Desktop/3rd-party/lang/cc65/asminc/errno.inc:7
    _directerrno.o            /home/pixel/Desktop/3rd-party/lang/cc65/asminc/errno.inc:7
    write.o                   /home/pixel/Desktop/3rd-party/lang/cc65/asminc/errno.inc:7
    read.o                    /home/pixel/Desktop/3rd-party/lang/cc65/asminc/errno.inc:7
___osmaperrno (oserror.o):
    _mappederrno.o            /home/pixel/Desktop/3rd-party/lang/cc65/asminc/errno.inc:8
___seterrno (_seterrno.o):
    _mappederrno.o            /home/pixel/Desktop/3rd-party/lang/cc65/asminc/errno.inc:9
    _directerrno.o            /home/pixel/Desktop/3rd-party/lang/cc65/asminc/errno.inc:9
    fwrite.o                  /home/pixel/Desktop/3rd-party/lang/cc65/asminc/errno.inc:9
__ctype (ctype.o):
    ctypemask.o               common/ctypemask.s:23
__ctypeidx (ctype.o):
    ctypemask.o               common/ctypemask.s:24
__hextab (_hextab.o):
    ltoa.o                    common/ltoa.s:10
__longminstr (_longminstr.o):
    ltoa.o                    common/ltoa.s:10
__printf (_printf.o):
    vfprintf.o                common/vfprintf.s:10
_fgetc (fgetc.o):
    getchar.o                 ../libwrk/vic20/getchar.s:17
_fwrite (fwrite.o):
    vfprintf.o                common/vfprintf.s:10
_getchar (getchar.o):
    init.o                    init.s:26
_ltoa (ltoa.o):
    _printf.o                 common/_printf.s:12
_main (init.o):
    callmain.o                runtime/callmain.s:11
_printf (printf.o):
    init.o                    init.s:27
_rand (rand.o):
    init.o                    init.s:25
_read (read.o):
    fgetc.o                   common/fgetc.s:8
_stdin (_file.o):
    getchar.o                 ../libwrk/vic20/getchar.s:16
_stdout (_file.o):
    printf.o                  common/printf.s:8
_strlen (strlen.o):
    _printf.o                 common/_printf.s:13
_strlower (strlower.o):
    _printf.o                 common/_printf.s:13
_tunix_alloc (c-wrappers.o):
    init.o                    init.s:15
_tunix_exit (c-wrappers.o):
    init.o                    init.s:21
_tunix_fork (c-wrappers.o):
    init.o                    init.s:20
_tunix_free (c-wrappers.o):
    init.o                    init.s:16
_tunix_getpid (c-wrappers.o):
    init.o                    init.s:19
_tunix_mem_info (c-wrappers.o):
    init.o                    init.s:17
_tunix_mode (c-wrappers.o):
    init.o                    init.s:14
_tunix_proc_info (c-wrappers.o):
    init.o                    init.s:23
_tunix_proc_list (c-wrappers.o):
    init.o                    init.s:24
_tunix_schedule (c-wrappers.o):
    init.o                    init.s:18
_tunix_wait (c-wrappers.o):
    init.o                    init.s:22
_ultoa (ltoa.o):
    _printf.o                 common/_printf.s:12
_vfprintf (vfprintf.o):
    printf.o                  common/printf.s:8
_write (write.o):
    fwrite.o                  common/fwrite.s:10
addysp (addysp.o):
    fwrite.o                  common/fwrite.s:11
    printf.o                  common/printf.s:8
    incsp6.o                  runtime/incsp6.s:8
    incsp4.o                  runtime/incsp4.s:8
    incsp3.o                  runtime/incsp3.s:8
axlong (axlong.o):
    _printf.o                 common/_printf.s:11
axulong (axlong.o):
    _printf.o                 common/_printf.s:11
callmain (callmain.o):
    crt0.o                    vic20/crt0.s:9
checkferror (checkferror.o):
    fgetc.o                   common/fgetc.s:8
ctypemaskdirect (ctypemask.o):
    strlower.o                common/strlower.s:14
decsp1 (decsp1.o):
    init.o                    init.s:673
    init.o                    init.s:673
decsp2 (decsp2.o):
    init.o                    init.s:673
decsp3 (decsp3.o):
    init.o                    init.s:673
decsp4 (decsp4.o):
    lpush.o                   runtime/lpush.s:12
    init.o                    init.s:673
decsp6 (decsp6.o):
    _printf.o                 common/_printf.s:11
donelib (condes.o):
    crt0.o                    vic20/crt0.s:7
fdtab (filedes.o):
    write.o                   cbm/filedes.inc:7
    read.o                    cbm/filedes.inc:7
incax1 (incax1.o):
    init.o                    init.s:673
incsp2 (incsp2.o):
    popptr1.o                 runtime/popptr1.s:8
    fgetc.o                   common/fgetc.s:9
    init.o                    init.s:673
    init.o                    init.s:673
incsp3 (incsp3.o):
    init.o                    init.s:673
incsp4 (incsp4.o):
    init.o                    init.s:673
incsp6 (incsp6.o):
    fwrite.o                  common/fwrite.s:11
    vfprintf.o                common/vfprintf.s:9
    init.o                    init.s:673
initlib (condes.o):
    crt0.o                    vic20/crt0.s:7
ldaxysp (ldaxsp.o):
    fwrite.o                  common/fwrite.s:11
lib_alloc (main.o):
    c-wrappers.o              c-wrappers.asm:2
lib_exit (main.o):
    c-wrappers.o              c-wrappers.asm:5
lib_fork (main.o):
    c-wrappers.o              c-wrappers.asm:4
lib_free (main.o):
    c-wrappers.o              c-wrappers.asm:2
lib_getpid (main.o):
    c-wrappers.o              c-wrappers.asm:3
lib_iopage_alloc (main.o):
    c-wrappers.o              c-wrappers.asm:7
lib_iopage_commit (main.o):
    c-wrappers.o              c-wrappers.asm:8
lib_iopage_free (main.o):
    c-wrappers.o              c-wrappers.asm:9
lib_kill (main.o):
    c-wrappers.o              c-wrappers.asm:5
lib_mem_info (main.o):
    c-wrappers.o              c-wrappers.asm:2
lib_mode (main.o):
    c-wrappers.o              c-wrappers.asm:1
lib_proc_info (main.o):
    c-wrappers.o              c-wrappers.asm:10
lib_proc_list (main.o):
    c-wrappers.o              c-wrappers.asm:10
lib_resume (main.o):
    c-wrappers.o              c-wrappers.asm:5
lib_schedule (main.o):
    c-wrappers.o              c-wrappers.asm:3
lib_suspend (main.o):
    c-wrappers.o              c-wrappers.asm:4
lib_wait (main.o):
    c-wrappers.o              c-wrappers.asm:6
mul8x16 (mul8.o):
    mul.o                     runtime/mul.s:8
mul8x16a (mul8.o):
    mul.o                     runtime/mul.s:8
negax (negabs.o):
    shelp.o                   runtime/shelp.s:11
    mod.o                     runtime/mod.s:11
negeax (lneg.o):
    ltoa.o                    common/ltoa.s:9
popax (incsp2.o):
    rwcommon.o                cbm/rwcommon.s:9
    ltoa.o                    common/ltoa.s:9
    _printf.o                 common/_printf.s:11
    shelp.o                   runtime/shelp.s:11
    c-wrappers.o              c-wrappers.asm:11
popptr1 (popptr1.o):
    rwcommon.o                cbm/rwcommon.s:9
    mul8.o                    runtime/mul8.s:9
    mul.o                     runtime/mul.s:9
    ltoa.o                    common/ltoa.s:9
    fgetc.o                   common/fgetc.s:9
    udiv.o                    runtime/udiv.s:9
popsargsudiv16 (shelp.o):
    mod.o                     runtime/mod.s:11
ptr1 (zeropage.o):
    checkferror.o             common/checkferror.s:12
    write.o                   cbm/write.s:11
    strlower.o                common/strlower.s:13
    read.o                    cbm/read.s:13
    popptr1.o                 runtime/popptr1.s:9
    mul8.o                    runtime/mul8.s:10
    mul.o                     runtime/mul.s:10
    ltoa.o                    common/ltoa.s:11
    fwrite.o                  common/fwrite.s:14
    fgetc.o                   common/fgetc.s:10
    _printf.o                 /home/pixel/Desktop/3rd-party/lang/cc65/asminc/zeropage.inc:12
    zerobss.o                 common/zerobss.s:9
    vfprintf.o                common/vfprintf.s:11
    udiv.o                    runtime/udiv.s:10
    shelp.o                   runtime/shelp.s:12
    printf.o                  common/printf.s:9
ptr2 (zeropage.o):
    write.o                   cbm/write.s:11
    strlower.o                common/strlower.s:13
    rwcommon.o                cbm/rwcommon.s:10
    read.o                    cbm/read.s:13
    ltoa.o                    common/ltoa.s:11
    _printf.o                 /home/pixel/Desktop/3rd-party/lang/cc65/asminc/zeropage.inc:12
ptr3 (zeropage.o):
    write.o                   cbm/write.s:11
    rwcommon.o                cbm/rwcommon.s:10
    read.o                    cbm/read.s:13
    ltoa.o                    common/ltoa.s:11
ptr4 (zeropage.o):
    strlen.o                  common/strlen.s:12
    mul8.o                    runtime/mul8.s:10
    mul.o                     runtime/mul.s:10
    udiv.o                    runtime/udiv.s:10
    shelp.o                   runtime/shelp.s:12
push1 (push1.o):
    _printf.o                 common/_printf.s:11
    vfprintf.o                common/vfprintf.s:9
pusha (pusha.o):
    init.o                    init.s:673
    init.o                    init.s:673
    init.o                    init.s:673
    init.o                    init.s:673
    init.o                    init.s:673
pusha0 (pushax.o):
    push1.o                   runtime/push1.s:8
    fwrite.o                  common/fwrite.s:11
    fgetc.o                   common/fgetc.s:9
    init.o                    init.s:673
    init.o                    init.s:673
pushax (pushax.o):
    fwrite.o                  common/fwrite.s:11
    fgetc.o                   common/fgetc.s:9
    callmain.o                runtime/callmain.s:11
    _printf.o                 common/_printf.s:11
    printf.o                  common/printf.s:8
    init.o                    init.s:673
    init.o                    init.s:673
    init.o                    init.s:673
    init.o                    init.s:673
    init.o                    init.s:673
pusheax (lpush.o):
    _printf.o                 common/_printf.s:11
pushwysp (pushwsp.o):
    fwrite.o                  common/fwrite.s:11
    vfprintf.o                common/vfprintf.s:9
regbank (zeropage.o):
    _printf.o                 /home/pixel/Desktop/3rd-party/lang/cc65/asminc/zeropage.inc:14
returnFFFF (returnFFFF.o):
    fgetc.o                   common/fgetc.s:9
rwcommon (rwcommon.o):
    write.o                   cbm/write.s:10
    read.o                    cbm/read.s:11
sp (zeropage.o):
    pushwsp.o                 runtime/pushwsp.s:8
    popptr1.o                 runtime/popptr1.s:9
    lpush.o                   runtime/lpush.s:13
    ldaxsp.o                  runtime/ldaxsp.s:8
    decsp6.o                  runtime/decsp6.s:8
    addysp.o                  runtime/addysp.s:8
    _printf.o                 /home/pixel/Desktop/3rd-party/lang/cc65/asminc/zeropage.inc:11
    vfprintf.o                common/vfprintf.s:11
    pushax.o                  runtime/pushax.s:8
    pusha.o                   runtime/pusha.s:8
    printf.o                  common/printf.s:9
    incsp2.o                  runtime/incsp2.s:8
    decsp4.o                  runtime/decsp4.s:8
    decsp3.o                  runtime/decsp3.s:8
    decsp2.o                  runtime/decsp2.s:8
    decsp1.o                  runtime/decsp1.s:8
    crt0.o                    /home/pixel/Desktop/3rd-party/lang/cc65/asminc/zeropage.inc:11
    init.o                    init.s:10
sreg (zeropage.o):
    lneg.o                    runtime/lneg.s:11
    ltoa.o                    common/ltoa.s:11
    lpush.o                   runtime/lpush.s:13
    axlong.o                  runtime/axlong.s:9
    _printf.o                 /home/pixel/Desktop/3rd-party/lang/cc65/asminc/zeropage.inc:11
    udiv.o                    runtime/udiv.s:10
    mod.o                     runtime/mod.s:12
tmp1 (zeropage.o):
    read.o                    cbm/read.s:13
    mul.o                     runtime/mul.s:10
    ltoa.o                    common/ltoa.s:11
    _printf.o                 /home/pixel/Desktop/3rd-party/lang/cc65/asminc/zeropage.inc:13
    shelp.o                   runtime/shelp.s:12
    mod.o                     runtime/mod.s:12
tmp2 (zeropage.o):
    rwcommon.o                cbm/rwcommon.s:10
    read.o                    cbm/read.s:13
    shelp.o                   runtime/shelp.s:12
tmp3 (zeropage.o):
    read.o                    cbm/read.s:13
tosmoda0 (mod.o):
    init.o                    init.s:673
tosudivax (udiv.o):
    fwrite.o                  common/fwrite.s:12
tosumulax (mul.o):
    fwrite.o                  common/fwrite.s:12
udiv16 (udiv.o):
    shelp.o                   runtime/shelp.s:11
unittab (filedes.o):
    read.o                    cbm/filedes.inc:8
zerobss (zerobss.o):
    crt0.o                    vic20/crt0.s:8

